; Function Attrs: mustprogress uwtable
define dso_local noundef range(i32 0, 2) i32 @_Z13luaL_callmetaP9lua_StateiPKc(ptr noundef %0, i32 noundef %1, ptr noundef %2) local_unnamed_addr #2 {
  %4 = add i32 %1, -1
  %or.cond = icmp ult i32 %4, -10000
  br i1 %or.cond, label %9, label %5

5:                                                ; preds = %3
  %6 = tail call noundef i32 @_Z10lua_gettopP9lua_State(ptr noundef %0)
  %7 = add nsw i32 %1, 1
  %8 = add i32 %7, %6
  br label %9

9:                                                ; preds = %3, %5
  %10 = phi i32 [ %8, %5 ], [ %1, %3 ]
  %11 = tail call noundef i32 @_Z16lua_getmetatableP9lua_Statei(ptr noundef %0, i32 noundef %10)
  %.not.i = icmp eq i32 %11, 0
  br i1 %.not.i, label %_Z17luaL_getmetafieldP9lua_StateiPKc.exit.thread, label %12

12:                                               ; preds = %9
  tail call void @_Z14lua_pushstringP9lua_StatePKc(ptr noundef %0, ptr noundef %2)
  %13 = tail call noundef i32 @_Z10lua_rawgetP9lua_Statei(ptr noundef %0, i32 noundef -2)
  %14 = tail call noundef i32 @_Z8lua_typeP9lua_Statei(ptr noundef %0, i32 noundef -1)
  %15 = icmp eq i32 %14, 0
  br i1 %15, label %16, label %17

16:                                               ; preds = %12
  tail call void @_Z10lua_settopP9lua_Statei(ptr noundef %0, i32 noundef -3)
  br label %_Z17luaL_getmetafieldP9lua_StateiPKc.exit.thread

17:                                               ; preds = %12
  tail call void @_Z10lua_removeP9lua_Statei(ptr noundef %0, i32 noundef -2)
  tail call void @_Z13lua_pushvalueP9lua_Statei(ptr noundef %0, i32 noundef %10)
  tail call void @_Z8lua_callP9lua_Stateii(ptr noundef %0, i32 noundef 1, i32 noundef 1)
  br label %_Z17luaL_getmetafieldP9lua_StateiPKc.exit.thread

_Z17luaL_getmetafieldP9lua_StateiPKc.exit.thread: ; preds = %9, %16, %17
  %.0 = phi i32 [ 1, %17 ], [ 0, %16 ], [ 0, %9 ]
  ret i32 %.0
}